; Function Attrs: mustprogress uwtable
define hidden void @_ZN3ue217ComponentSequenceC2Ev(ptr noundef nonnull align 8 dereferenceable(88) %0) unnamed_addr #0 align 2 personality ptr @__gxx_personality_v0 {
  tail call void @_ZN3ue29ComponentC2Ev(ptr noundef nonnull align 8 dereferenceable(16) %0)
  store ptr getelementptr inbounds nuw inrange(-16, 144) (i8, ptr @_ZTVN3ue217ComponentSequenceE, i64 16), ptr %0, align 8
  %2 = getelementptr inbounds nuw i8, ptr %0, i64 16
  %3 = getelementptr inbounds nuw i8, ptr %0, i64 48
  tail call void @llvm.memset.p0.i64(ptr noundef nonnull align 8 dereferenceable(32) %2, i8 0, i64 32, i1 false)
  store i32 65536, ptr %3, align 8
  %4 = getelementptr inbounds nuw i8, ptr %0, i64 56
  %5 = getelementptr inbounds nuw i8, ptr %0, i64 72
  store ptr %5, ptr %4, align 8
  %6 = getelementptr inbounds nuw i8, ptr %0, i64 64
  store i64 0, ptr %6, align 8
  store i8 0, ptr %5, align 8
  ret void
}